target datalayout = "e-m:e-p270:32:32-p271:32:32-p272:64:64-i64:64-i128:128-f80:128-n8:16:32:64-S128"
target triple = "x86_64-pc-linux-gnu"

%"class.pxrInternal_v0_24__pxrReserved__::VtValue" = type { %"union.std::aligned_storage<8, 8>::type", %"class.pxrInternal_v0_24__pxrReserved__::TfPointerAndBits.26" }
%"union.std::aligned_storage<8, 8>::type" = type { [8 x i8] }
%"class.pxrInternal_v0_24__pxrReserved__::TfPointerAndBits.26" = type { ptr }
%"class.pxrInternal_v0_24__pxrReserved__::TfCallContext" = type <{ ptr, ptr, i64, ptr, i8, [7 x i8] }>

@.str.21 = private unnamed_addr constant [126 x i8] c"generated/home/dtcxzyw/WorkSpace/Projects/compilers/llvm-opt-benchmark/bench/openusd/OpenUSD/pxr/imaging/hd/primvarSchema.cpp\00", align 1
@__func__._ZN32pxrInternal_v0_24__pxrReserved__12_GLOBAL__N_122_ComputeFlattenedValueclERKNS_7VtValueE = private unnamed_addr constant [11 x i8] c"operator()\00", align 1
@__PRETTY_FUNCTION__._ZN32pxrInternal_v0_24__pxrReserved__12_GLOBAL__N_122_ComputeFlattenedValueclERKNS_7VtValueE = private unnamed_addr constant [117 x i8] c"VtValue pxrInternal_v0_24__pxrReserved__::(anonymous namespace)::_ComputeFlattenedValue::operator()(const VtValue &)\00", align 1
@.str.22 = private unnamed_addr constant [33 x i8] c"Unsupported indexed primvar type\00", align 1

; Function Attrs: mustprogress nounwind uwtable
define linkonce_odr void @_ZN32pxrInternal_v0_24__pxrReserved__16TfPointerAndBitsIKNS_7VtValue9_TypeInfoEEC2Ev(ptr noundef nonnull align 8 dereferenceable(8) %0) unnamed_addr #0 comdat align 2 {
  %2 = alloca ptr, align 8
  store ptr %0, ptr %2, align 8
  %3 = load ptr, ptr %2, align 8
  %4 = getelementptr inbounds nuw %"class.pxrInternal_v0_24__pxrReserved__::TfPointerAndBits.26", ptr %3, i32 0, i32 0
  store ptr null, ptr %4, align 8
  ret void
}

; Function Attrs: mustprogress uwtable
define linkonce_odr void @_ZN32pxrInternal_v0_24__pxrReserved__7VtValueC2ERKS0_(ptr noundef nonnull align 8 dereferenceable(16) %0, ptr noundef nonnull align 8 dereferenceable(16) %1) unnamed_addr #1 comdat align 2 {
  %3 = alloca ptr, align 8
  %4 = alloca ptr, align 8
  store ptr %0, ptr %3, align 8
  store ptr %1, ptr %4, align 8
  %5 = load ptr, ptr %3, align 8
  %6 = getelementptr inbounds nuw %"class.pxrInternal_v0_24__pxrReserved__::VtValue", ptr %5, i32 0, i32 1
  call void @_ZN32pxrInternal_v0_24__pxrReserved__16TfPointerAndBitsIKNS_7VtValue9_TypeInfoEEC2Ev(ptr noundef nonnull align 8 dereferenceable(8) %6) #3
  %7 = load ptr, ptr %4, align 8
  call void @_ZN32pxrInternal_v0_24__pxrReserved__7VtValue5_CopyERKS0_RS0_(ptr noundef nonnull align 8 dereferenceable(16) %7, ptr noundef nonnull align 8 dereferenceable(16) %5)
  ret void
}

; Function Attrs: mustprogress nounwind uwtable
define linkonce_odr void @_ZN32pxrInternal_v0_24__pxrReserved__13TfCallContextC2EPKcS2_mS2_(ptr noundef nonnull align 8 dereferenceable(33) %0, ptr noundef %1, ptr noundef %2, i64 noundef %3, ptr noundef %4) unnamed_addr #0 comdat align 2 {
  %6 = alloca ptr, align 8
  %7 = alloca ptr, align 8
  %8 = alloca ptr, align 8
  %9 = alloca i64, align 8
  %10 = alloca ptr, align 8
  store ptr %0, ptr %6, align 8
  store ptr %1, ptr %7, align 8
  store ptr %2, ptr %8, align 8
  store i64 %3, ptr %9, align 8
  store ptr %4, ptr %10, align 8
  %11 = load ptr, ptr %6, align 8
  %12 = getelementptr inbounds nuw %"class.pxrInternal_v0_24__pxrReserved__::TfCallContext", ptr %11, i32 0, i32 0
  %13 = load ptr, ptr %7, align 8
  store ptr %13, ptr %12, align 8
  %14 = getelementptr inbounds nuw %"class.pxrInternal_v0_24__pxrReserved__::TfCallContext", ptr %11, i32 0, i32 1
  %15 = load ptr, ptr %8, align 8
  store ptr %15, ptr %14, align 8
  %16 = getelementptr inbounds nuw %"class.pxrInternal_v0_24__pxrReserved__::TfCallContext", ptr %11, i32 0, i32 2
  %17 = load i64, ptr %9, align 8
  store i64 %17, ptr %16, align 8
  %18 = getelementptr inbounds nuw %"class.pxrInternal_v0_24__pxrReserved__::TfCallContext", ptr %11, i32 0, i32 3
  %19 = load ptr, ptr %10, align 8
  store ptr %19, ptr %18, align 8
  %20 = getelementptr inbounds nuw %"class.pxrInternal_v0_24__pxrReserved__::TfCallContext", ptr %11, i32 0, i32 4
  store i8 0, ptr %20, align 8
  ret void
}

; Function Attrs: mustprogress uwtable
define internal void @_ZN32pxrInternal_v0_24__pxrReserved__12_GLOBAL__N_122_ComputeFlattenedValueclERKNS_7VtValueE(ptr dead_on_unwind noalias writable sret(%"class.pxrInternal_v0_24__pxrReserved__::VtValue") align 8 %0, ptr noundef nonnull align 8 dereferenceable(40) %1, ptr noundef nonnull align 8 dereferenceable(16) %2) #1 align 2 {
  %4 = alloca ptr, align 8
  %5 = alloca ptr, align 8
  %6 = alloca ptr, align 8
  %7 = alloca %"class.pxrInternal_v0_24__pxrReserved__::TfCallContext", align 8
  store ptr %0, ptr %4, align 8
  store ptr %1, ptr %5, align 8
  store ptr %2, ptr %6, align 8
  call void @_ZN32pxrInternal_v0_24__pxrReserved__13TfCallContextC2EPKcS2_mS2_(ptr noundef nonnull align 8 dereferenceable(33) %7, ptr noundef @.str.21, ptr noundef @__func__._ZN32pxrInternal_v0_24__pxrReserved__12_GLOBAL__N_122_ComputeFlattenedValueclERKNS_7VtValueE, i64 noundef 87, ptr noundef @__PRETTY_FUNCTION__._ZN32pxrInternal_v0_24__pxrReserved__12_GLOBAL__N_122_ComputeFlattenedValueclERKNS_7VtValueE)
  call void (ptr, ptr, ...) @_ZN32pxrInternal_v0_24__pxrReserved__20Tf_PostWarningHelperERKNS_13TfCallContextEPKcz(ptr noundef nonnull align 8 dereferenceable(33) %7, ptr noundef @.str.22)
  %8 = load ptr, ptr %6, align 8
  call void @_ZN32pxrInternal_v0_24__pxrReserved__7VtValueC2ERKS0_(ptr noundef nonnull align 8 dereferenceable(16) %0, ptr noundef nonnull align 8 dereferenceable(16) %8)
  ret void
}

; Function Attrs: mustprogress uwtable
define internal void @_ZN32pxrInternal_v0_24__pxrReserved__19Vt_ValueVisitDetail5VisitINS_7GfVec2iENS_12_GLOBAL__N_122_ComputeFlattenedValueEEEDaRKNS_7VtValueEOT0_z(ptr dead_on_unwind noalias writable sret(%"class.pxrInternal_v0_24__pxrReserved__::VtValue") align 8 %0, ptr noundef nonnull align 8 dereferenceable(16) %1, ptr noundef nonnull align 8 dereferenceable(40) %2, ...) #1 {
  %4 = alloca ptr, align 8
  %5 = alloca ptr, align 8
  %6 = alloca ptr, align 8
  store ptr %0, ptr %4, align 8
  store ptr %1, ptr %5, align 8
  store ptr %2, ptr %6, align 8
  %7 = load ptr, ptr %6, align 8
  %8 = load ptr, ptr %5, align 8
  call void @_ZN32pxrInternal_v0_24__pxrReserved__12_GLOBAL__N_122_ComputeFlattenedValueclERKNS_7VtValueE(ptr dead_on_unwind writable sret(%"class.pxrInternal_v0_24__pxrReserved__::VtValue") align 8 %0, ptr noundef nonnull align 8 dereferenceable(40) %7, ptr noundef nonnull align 8 dereferenceable(16) %8)
  ret void
}